target datalayout = "e-m:e-p270:32:32-p271:32:32-p272:64:64-i64:64-i128:128-f80:128-n8:16:32:64-S128"
target triple = "x86_64-pc-linux-gnu"

%struct.AudioData = type { [64 x ptr], ptr, i32, i32, i32, i32, i32 }

; Function Attrs: nounwind uwtable
define internal void @buf_set(ptr noundef %0, ptr noundef %1, i32 noundef %2) #0 {
  %4 = alloca ptr, align 8
  %5 = alloca ptr, align 8
  %6 = alloca i32, align 4
  %7 = alloca i32, align 4
  store ptr %0, ptr %4, align 8, !tbaa !96
  store ptr %1, ptr %5, align 8, !tbaa !96
  store i32 %2, ptr %6, align 4, !tbaa !31
  call void @llvm.lifetime.start.p0(i64 4, ptr %7) #9
  %8 = load ptr, ptr %5, align 8, !tbaa !96
  %9 = getelementptr inbounds nuw %struct.AudioData, ptr %8, i32 0, i32 5
  %10 = load i32, ptr %9, align 4, !tbaa !100
  %11 = icmp ne i32 %10, 0
  br i1 %11, label %12, label %42

12:                                               ; preds = %3
  store i32 0, ptr %7, align 4, !tbaa !31
  br label %13

13:                                               ; preds = %38, %12
  %14 = load i32, ptr %7, align 4, !tbaa !31
  %15 = load ptr, ptr %4, align 8, !tbaa !96
  %16 = getelementptr inbounds nuw %struct.AudioData, ptr %15, i32 0, i32 2
  %17 = load i32, ptr %16, align 8, !tbaa !101
  %18 = icmp slt i32 %14, %17
  br i1 %18, label %19, label %41

19:                                               ; preds = %13
  %20 = load ptr, ptr %5, align 8, !tbaa !96
  %21 = getelementptr inbounds nuw %struct.AudioData, ptr %20, i32 0, i32 0
  %22 = load i32, ptr %7, align 4, !tbaa !31
  %23 = sext i32 %22 to i64
  %24 = getelementptr inbounds [64 x ptr], ptr %21, i64 0, i64 %23
  %25 = load ptr, ptr %24, align 8, !tbaa !86
  %26 = load i32, ptr %6, align 4, !tbaa !31
  %27 = load ptr, ptr %4, align 8, !tbaa !96
  %28 = getelementptr inbounds nuw %struct.AudioData, ptr %27, i32 0, i32 3
  %29 = load i32, ptr %28, align 4, !tbaa !99
  %30 = mul nsw i32 %26, %29
  %31 = sext i32 %30 to i64
  %32 = getelementptr inbounds i8, ptr %25, i64 %31
  %33 = load ptr, ptr %4, align 8, !tbaa !96
  %34 = getelementptr inbounds nuw %struct.AudioData, ptr %33, i32 0, i32 0
  %35 = load i32, ptr %7, align 4, !tbaa !31
  %36 = sext i32 %35 to i64
  %37 = getelementptr inbounds [64 x ptr], ptr %34, i64 0, i64 %36
  store ptr %32, ptr %37, align 8, !tbaa !86
  br label %38

38:                                               ; preds = %19
  %39 = load i32, ptr %7, align 4, !tbaa !31
  %40 = add nsw i32 %39, 1
  store i32 %40, ptr %7, align 4, !tbaa !31
  br label %13, !llvm.loop !129

41:                                               ; preds = %13
  br label %77

42:                                               ; preds = %3
  %43 = load ptr, ptr %4, align 8, !tbaa !96
  %44 = getelementptr inbounds nuw %struct.AudioData, ptr %43, i32 0, i32 2
  %45 = load i32, ptr %44, align 8, !tbaa !101
  %46 = sub nsw i32 %45, 1
  store i32 %46, ptr %7, align 4, !tbaa !31
  br label %47

47:                                               ; preds = %73, %42
  %48 = load i32, ptr %7, align 4, !tbaa !31
  %49 = icmp sge i32 %48, 0
  br i1 %49, label %50, label %76

50:                                               ; preds = %47
  %51 = load ptr, ptr %5, align 8, !tbaa !96
  %52 = getelementptr inbounds nuw %struct.AudioData, ptr %51, i32 0, i32 0
  %53 = getelementptr inbounds [64 x ptr], ptr %52, i64 0, i64 0
  %54 = load ptr, ptr %53, align 8, !tbaa !86
  %55 = load i32, ptr %7, align 4, !tbaa !31
  %56 = load i32, ptr %6, align 4, !tbaa !31
  %57 = load ptr, ptr %4, align 8, !tbaa !96
  %58 = getelementptr inbounds nuw %struct.AudioData, ptr %57, i32 0, i32 2
  %59 = load i32, ptr %58, align 8, !tbaa !101
  %60 = mul nsw i32 %56, %59
  %61 = add nsw i32 %55, %60
  %62 = load ptr, ptr %4, align 8, !tbaa !96
  %63 = getelementptr inbounds nuw %struct.AudioData, ptr %62, i32 0, i32 3
  %64 = load i32, ptr %63, align 4, !tbaa !99
  %65 = mul nsw i32 %61, %64
  %66 = sext i32 %65 to i64
  %67 = getelementptr inbounds i8, ptr %54, i64 %66
  %68 = load ptr, ptr %4, align 8, !tbaa !96
  %69 = getelementptr inbounds nuw %struct.AudioData, ptr %68, i32 0, i32 0
  %70 = load i32, ptr %7, align 4, !tbaa !31
  %71 = sext i32 %70 to i64
  %72 = getelementptr inbounds [64 x ptr], ptr %69, i64 0, i64 %71
  store ptr %67, ptr %72, align 8, !tbaa !86
  br label %73

73:                                               ; preds = %50
  %74 = load i32, ptr %7, align 4, !tbaa !31
  %75 = add nsw i32 %74, -1
  store i32 %75, ptr %7, align 4, !tbaa !31
  br label %47, !llvm.loop !130

76:                                               ; preds = %47
  br label %77

77:                                               ; preds = %76, %41
  call void @llvm.lifetime.end.p0(i64 4, ptr %7) #9
  ret void
}