; Function Attrs: nofree norecurse nosync nounwind memory(argmem: readwrite) uwtable
define internal fastcc void @buf_set(ptr noundef captures(none) %0, ptr noundef readonly captures(none) %1, i32 noundef %2) unnamed_addr #8 {
  %4 = getelementptr inbounds nuw i8, ptr %1, i64 532
  %5 = load i32, ptr %4, align 4, !tbaa !94
  %.not = icmp eq i32 %5, 0
  %6 = getelementptr inbounds nuw i8, ptr %0, i64 520
  %7 = load i32, ptr %6, align 8, !tbaa !92
  %8 = icmp sgt i32 %7, 0
  br i1 %.not, label %18, label %.preheader

.preheader:                                       ; preds = %3
  br i1 %8, label %.lr.ph, label %.loopexit

.lr.ph:                                           ; preds = %.preheader
  %9 = getelementptr inbounds nuw i8, ptr %0, i64 524
  %10 = load i32, ptr %9, align 4, !tbaa !91
  %11 = mul nsw i32 %10, %2
  %12 = sext i32 %11 to i64
  %wide.trip.count = zext nneg i32 %7 to i64
  br label %13

13:                                               ; preds = %.lr.ph, %13
  %indvars.iv = phi i64 [ 0, %.lr.ph ], [ %indvars.iv.next, %13 ]
  %14 = getelementptr inbounds nuw [64 x ptr], ptr %1, i64 0, i64 %indvars.iv
  %15 = load ptr, ptr %14, align 8, !tbaa !79
  %16 = getelementptr inbounds i8, ptr %15, i64 %12
  %17 = getelementptr inbounds nuw [64 x ptr], ptr %0, i64 0, i64 %indvars.iv
  store ptr %16, ptr %17, align 8, !tbaa !79
  %indvars.iv.next = add nuw nsw i64 %indvars.iv, 1
  %exitcond.not = icmp eq i64 %indvars.iv.next, %wide.trip.count
  br i1 %exitcond.not, label %.loopexit, label %13, !llvm.loop !103

18:                                               ; preds = %3
  br i1 %8, label %.lr.ph22, label %.loopexit

.lr.ph22:                                         ; preds = %18
  %19 = mul nsw i32 %7, %2
  %20 = getelementptr inbounds nuw i8, ptr %0, i64 524
  %21 = load i32, ptr %20, align 4, !tbaa !91
  %22 = zext nneg i32 %7 to i64
  %23 = sext i32 %19 to i64
  %24 = sext i32 %21 to i64
  br label %25

25:                                               ; preds = %.lr.ph22, %25
  %indvars.iv25 = phi i64 [ %22, %.lr.ph22 ], [ %indvars.iv.next26, %25 ]
  %indvars.iv.next26 = add nsw i64 %indvars.iv25, -1
  %26 = load ptr, ptr %1, align 8, !tbaa !79
  %27 = add nsw i64 %indvars.iv.next26, %23
  %28 = mul nsw i64 %27, %24
  %29 = getelementptr inbounds i8, ptr %26, i64 %28
  %30 = getelementptr inbounds nuw [64 x ptr], ptr %0, i64 0, i64 %indvars.iv.next26
  store ptr %29, ptr %30, align 8, !tbaa !79
  %31 = icmp samesign ugt i64 %indvars.iv25, 1
  br i1 %31, label %25, label %.loopexit, !llvm.loop !104

.loopexit:                                        ; preds = %13, %25, %.preheader, %18
  ret void
}